target datalayout = "e-m:e-p270:32:32-p271:32:32-p272:64:64-i64:64-i128:128-f80:128-n8:16:32:64-S128"
target triple = "x86_64-pc-linux-gnu"

%"class.icu_77::UnicodeString" = type { %"class.icu_77::Replaceable", %"union.icu_77::UnicodeString::StackBufferOrFields" }
%"class.icu_77::Replaceable" = type { %"class.icu_77::UObject" }
%"class.icu_77::UObject" = type { ptr }
%"union.icu_77::UnicodeString::StackBufferOrFields" = type { %struct.anon.0, [32 x i8] }
%struct.anon.0 = type { i16, i32, i32, ptr }

; Function Attrs: mustprogress uwtable
define noundef i32 @_ZN6icu_777unisets10chooseFromENS_13UnicodeStringENS0_3KeyE(ptr noundef %0, i32 noundef %1) #0 {
  %3 = alloca ptr, align 8
  %4 = alloca i32, align 4
  store ptr %0, ptr %3, align 8, !tbaa !24
  store i32 %1, ptr %4, align 4, !tbaa !3
  %5 = load i32, ptr %4, align 4, !tbaa !3
  %6 = call noundef ptr @_ZN6icu_777unisets3getENS0_3KeyE(i32 noundef %5)
  %7 = call noundef signext i8 @_ZNK6icu_7710UnicodeSet8containsERKNS_13UnicodeStringE(ptr noundef nonnull align 8 dereferenceable(200) %6, ptr noundef nonnull align 8 dereferenceable(64) %0)
  %8 = icmp ne i8 %7, 0
  br i1 %8, label %9, label %11

9:                                                ; preds = %2
  %10 = load i32, ptr %4, align 4, !tbaa !3
  br label %12

11:                                               ; preds = %2
  br label %12

12:                                               ; preds = %11, %9
  %13 = phi i32 [ %10, %9 ], [ -1, %11 ]
  ret i32 %13
}

; Function Attrs: mustprogress uwtable
define noundef i32 @_ZN6icu_777unisets10chooseFromENS_13UnicodeStringENS0_3KeyES2_(ptr noundef %0, i32 noundef %1, i32 noundef %2) #0 personality ptr @__gxx_personality_v0 {
  %4 = alloca i32, align 4
  %5 = alloca ptr, align 8
  %6 = alloca i32, align 4
  %7 = alloca i32, align 4
  %8 = alloca %"class.icu_77::UnicodeString", align 8
  %9 = alloca i1, align 1
  %10 = alloca ptr, align 8
  %11 = alloca i32, align 4
  store ptr %0, ptr %5, align 8, !tbaa !24
  store i32 %1, ptr %6, align 4, !tbaa !3
  store i32 %2, ptr %7, align 4, !tbaa !3
  %12 = load i32, ptr %6, align 4, !tbaa !3
  %13 = call noundef ptr @_ZN6icu_777unisets3getENS0_3KeyE(i32 noundef %12)
  %14 = call noundef signext i8 @_ZNK6icu_7710UnicodeSet8containsERKNS_13UnicodeStringE(ptr noundef nonnull align 8 dereferenceable(200) %13, ptr noundef nonnull align 8 dereferenceable(64) %0)
  %15 = icmp ne i8 %14, 0
  store i1 false, ptr %9, align 1
  br i1 %15, label %16, label %18

16:                                               ; preds = %3
  %17 = load i32, ptr %6, align 4, !tbaa !3
  br label %22

18:                                               ; preds = %3
  call void @_ZN6icu_7713UnicodeStringC1ERKS0_(ptr noundef nonnull align 8 dereferenceable(64) %8, ptr noundef nonnull align 8 dereferenceable(64) %0)
  store i1 true, ptr %9, align 1
  %19 = load i32, ptr %7, align 4, !tbaa !3
  %20 = invoke noundef i32 @_ZN6icu_777unisets10chooseFromENS_13UnicodeStringENS0_3KeyE(ptr noundef %8, i32 noundef %19)
          to label %21 unwind label %28

21:                                               ; preds = %18
  br label %22

22:                                               ; preds = %21, %16
  %23 = phi i32 [ %17, %16 ], [ %20, %21 ]
  store i32 %23, ptr %4, align 4
  %24 = load i1, ptr %9, align 1
  br i1 %24, label %25, label %26

25:                                               ; preds = %22
  call void @_ZN6icu_7713UnicodeStringD1Ev(ptr noundef nonnull align 8 dereferenceable(64) %8) #11
  br label %26

26:                                               ; preds = %25, %22
  %27 = load i32, ptr %4, align 4
  ret i32 %27

28:                                               ; preds = %18
  %29 = landingpad { ptr, i32 }
          cleanup
  %30 = extractvalue { ptr, i32 } %29, 0
  store ptr %30, ptr %10, align 8
  %31 = extractvalue { ptr, i32 } %29, 1
  store i32 %31, ptr %11, align 4
  %32 = load i1, ptr %9, align 1
  br i1 %32, label %33, label %34

33:                                               ; preds = %28
  call void @_ZN6icu_7713UnicodeStringD1Ev(ptr noundef nonnull align 8 dereferenceable(64) %8) #11
  br label %34

34:                                               ; preds = %33, %28
  br label %35

35:                                               ; preds = %34
  %36 = load ptr, ptr %10, align 8
  %37 = load i32, ptr %11, align 4
  %38 = insertvalue { ptr, i32 } poison, ptr %36, 0
  %39 = insertvalue { ptr, i32 } %38, i32 %37, 1
  resume { ptr, i32 } %39
}