; Function Attrs: mustprogress uwtable
define noundef i32 @_ZN6icu_777unisets10chooseFromENS_13UnicodeStringENS0_3KeyES2_(ptr noundef %0, i32 noundef %1, i32 noundef %2) local_unnamed_addr #0 personality ptr @__gxx_personality_v0 {
  %4 = alloca %"class.icu_77::UnicodeString", align 8
  %5 = tail call noundef ptr @_ZN6icu_777unisets3getENS0_3KeyE(i32 noundef %1)
  %6 = tail call noundef signext i8 @_ZNK6icu_7710UnicodeSet8containsERKNS_13UnicodeStringE(ptr noundef nonnull align 8 dereferenceable(200) %5, ptr noundef nonnull align 8 dereferenceable(64) %0)
  %.not = icmp eq i8 %6, 0
  br i1 %.not, label %7, label %12

7:                                                ; preds = %3
  call void @_ZN6icu_7713UnicodeStringC1ERKS0_(ptr noundef nonnull align 8 dereferenceable(64) %4, ptr noundef nonnull align 8 dereferenceable(64) %0)
  %8 = invoke noundef ptr @_ZN6icu_777unisets3getENS0_3KeyE(i32 noundef %2)
          to label %.noexc unwind label %14

.noexc:                                           ; preds = %7
  %9 = invoke noundef signext i8 @_ZNK6icu_7710UnicodeSet8containsERKNS_13UnicodeStringE(ptr noundef nonnull align 8 dereferenceable(200) %8, ptr noundef nonnull align 8 dereferenceable(64) %4)
          to label %10 unwind label %14

10:                                               ; preds = %.noexc
  %.not.i = icmp eq i8 %9, 0
  %11 = select i1 %.not.i, i32 -1, i32 %2
  call void @_ZN6icu_7713UnicodeStringD1Ev(ptr noundef nonnull align 8 dereferenceable(64) %4) #9
  br label %12

12:                                               ; preds = %3, %10
  %13 = phi i32 [ %11, %10 ], [ %1, %3 ]
  ret i32 %13

14:                                               ; preds = %.noexc, %7
  %15 = landingpad { ptr, i32 }
          cleanup
  call void @_ZN6icu_7713UnicodeStringD1Ev(ptr noundef nonnull align 8 dereferenceable(64) %4) #9
  resume { ptr, i32 } %15
}